Certificate:
    Data:
        Version: 3 (0x2)
        Serial Number:
            b9:48:77:eb:ce:53:1b:f8
        Signature Algorithm: sha256WithRSAEncryption
        Issuer: C=CH, ST=Neuchatel, O=Red Hat, OU=CA cert 20210511, CN=localhost/emailAddress=jfclere@gmail.com
        Validity
            Not Before: May 11 08:19:51 2021 GMT
            Not After : May 10 08:19:51 2024 GMT
        Subject: C=CH, ST=Neuchatel, O=Red Hat, OU=CA cert 20210511, CN=localhost/emailAddress=jfclere@gmail.com
        Subject Public Key Info:
            Public Key Algorithm: rsaEncryption
                RSA Public-Key: (2048 bit)
                Modulus:
                    00:a5:30:ea:aa:69:30:ea:19:d7:23:c3:b0:ff:f7:
                    64:7f:29:8b:c4:cb:2c:d7:a1:d9:a4:db:23:14:fb:
                    2d:7d:27:3a:2a:8a:05:c5:50:6a:3a:9a:20:d2:2b:
                    26:23:9a:5b:65:ce:09:d6:2b:b4:99:03:0b:ee:2f:
                    7a:37:c9:57:5c:13:e4:4a:7b:cb:22:0b:86:e1:e3:
                    1a:03:88:e7:27:a5:5b:43:e8:ce:45:de:73:a3:c6:
                    95:95:a0:cb:a3:70:1a:be:50:ff:89:08:59:6e:ad:
                    bd:96:80:56:75:b0:42:03:8b:ab:dc:6a:84:a8:e3:
                    9e:60:06:12:4d:86:52:2d:7d:83:04:4d:49:65:e7:
                    f6:4a:c9:80:ca:bc:32:36:15:0b:76:8d:e0:db:c5:
                    50:f2:b0:39:53:e9:d0:09:fb:3d:df:87:4c:85:b7:
                    78:47:ce:d6:8c:48:9a:21:56:97:3a:d6:67:aa:9d:
                    97:56:c9:e9:1b:4c:03:b5:96:da:f4:d4:ca:b2:9f:
                    3d:6e:6b:db:ef:8a:c0:68:a2:78:ed:9d:f4:99:ea:
                    e1:a7:a0:ba:dc:53:c5:e2:c4:5a:b1:01:77:98:d3:
                    e0:9f:5e:f2:09:1f:5a:cd:d6:ba:ee:58:d4:44:4a:
                    ef:0c:76:5e:1d:31:91:00:b1:55:3f:15:be:3b:52:
                    ee:69
                Exponent: 65537 (0x10001)
        X509v3 extensions:
            X509v3 Subject Key Identifier: 
                DB:42:12:90:08:06:14:C4:B4:5F:69:C0:E0:E2:82:6C:F9:35:A5:38
            X509v3 Authority Key Identifier: 
                keyid:DB:42:12:90:08:06:14:C4:B4:5F:69:C0:E0:E2:82:6C:F9:35:A5:38

            X509v3 Basic Constraints: critical
                CA:TRUE
    Signature Algorithm: sha256WithRSAEncryption
         2d:3b:1c:7f:a2:72:ea:b0:b7:7c:09:d6:cd:fc:0b:40:61:b3:
         80:40:b1:be:92:84:24:6b:4f:13:75:fe:7b:d7:35:75:21:e6:
         a1:07:e6:05:09:c9:83:77:71:c7:ef:78:de:a7:95:cf:56:00:
         fa:b8:76:b7:4d:0a:1a:c8:b0:10:84:43:2e:a0:02:ea:de:0a:
         2d:c0:7c:23:51:52:3d:19:1f:7d:a7:a8:c8:de:38:c5:cc:8c:
         dd:73:49:3b:33:43:30:9f:43:37:53:70:53:26:7e:57:d1:8a:
         43:58:8b:70:6e:c9:d4:22:a9:7a:32:e4:37:71:a8:8c:53:8d:
         0e:48:73:2c:b4:33:2f:d9:ff:80:7c:6d:37:7a:c8:8d:44:e9:
         52:1e:83:d5:af:b5:c8:1e:02:10:1b:d7:6c:ab:ff:af:ac:f8:
         22:b1:ec:92:8b:5d:8f:95:37:29:6b:ee:3c:bb:6f:85:52:ff:
         d7:6f:42:5a:b9:48:85:2c:a9:81:26:df:07:d4:61:c1:b1:a2:
         58:43:6e:3f:12:d6:ff:56:1e:61:eb:1c:14:d5:33:10:e3:e3:
         7d:12:47:49:20:c0:6a:a3:0b:cb:a2:5b:c7:d6:c3:24:77:09:
         a7:b1:22:21:39:b3:f5:07:03:e8:fe:cb:57:89:55:cd:00:31:
         0b:7e:6a:fc
-----BEGIN CERTIFICATE-----
MIID4DCCAsigAwIBAgIJALlId+vOUxv4MA0GCSqGSIb3DQEBCwUAMIGEMQswCQYD
VQQGEwJDSDESMBAGA1UECAwJTmV1Y2hhdGVsMRAwDgYDVQQKDAdSZWQgSGF0MRkw
FwYDVQQLDBBDQSBjZXJ0IDIwMjEwNTExMRIwEAYDVQQDDAlsb2NhbGhvc3QxIDAe
BgkqhkiG9w0BCQEWEWpmY2xlcmVAZ21haWwuY29tMB4XDTIxMDUxMTA4MTk1MVoX
DTI0MDUxMDA4MTk1MVowgYQxCzAJBgNVBAYTAkNIMRIwEAYDVQQIDAlOZXVjaGF0
ZWwxEDAOBgNVBAoMB1JlZCBIYXQxGTAXBgNVBAsMEENBIGNlcnQgMjAyMTA1MTEx
EjAQBgNVBAMMCWxvY2FsaG9zdDEgMB4GCSqGSIb3DQEJARYRamZjbGVyZUBnbWFp
bC5jb20wggEiMA0GCSqGSIb3DQEBAQUAA4IBDwAwggEKAoIBAQClMOqqaTDqGdcj
w7D/92R/KYvEyyzXodmk2yMU+y19JzoqigXFUGo6miDSKyYjmltlzgnWK7SZAwvu
L3o3yVdcE+RKe8siC4bh4xoDiOcnpVtD6M5F3nOjxpWVoMujcBq+UP+JCFlurb2W
gFZ1sEIDi6vcaoSo455gBhJNhlItfYMETUll5/ZKyYDKvDI2FQt2jeDbxVDysDlT
6dAJ+z3fh0yFt3hHztaMSJohVpc61meqnZdWyekbTAO1ltr01Mqynz1ua9vvisBo
onjtnfSZ6uGnoLrcU8XixFqxAXeY0+CfXvIJH1rN1rruWNRESu8Mdl4dMZEAsVU/
Fb47Uu5pAgMBAAGjUzBRMB0GA1UdDgQWBBTbQhKQCAYUxLRfacDg4oJs+TWlODAf
BgNVHSMEGDAWgBTbQhKQCAYUxLRfacDg4oJs+TWlODAPBgNVHRMBAf8EBTADAQH/
MA0GCSqGSIb3DQEBCwUAA4IBAQAtOxx/onLqsLd8CdbN/AtAYbOAQLG+koQka08T
df571zV1IeahB+YFCcmDd3HH73jep5XPVgD6uHa3TQoayLAQhEMuoALq3gotwHwj
UVI9GR99p6jI3jjFzIzdc0k7M0Mwn0M3U3BTJn5X0YpDWItwbsnUIql6MuQ3caiM
U40OSHMstDMv2f+AfG03esiNROlSHoPVr7XIHgIQG9dsq/+vrPgiseySi12PlTcp
a+48u2+FUv/Xb0JauUiFLKmBJt8H1GHBsaJYQ24/Etb/Vh5h6xwU1TMQ4+N9EkdJ
IMBqowvLolvH1sMkdwmnsSIhObP1BwPo/stXiVXNADELfmr8
-----END CERTIFICATE-----
