Certificate:
    Data:
        Version: 3 (0x2)
        Serial Number:
            b9:48:77:eb:ce:53:1b:b1
    Signature Algorithm: sha256WithRSAEncryption
        Issuer: C=CH, ST=Neuchatel, O=Red Hat, OU=Test Neuchatel, CN=jfcpc/emailAddress=jfclere@gmail.com
        Validity
            Not Before: May  7 13:04:55 2018 GMT
            Not After : May  6 13:04:55 2021 GMT
        Subject: C=CH, ST=Neuchatel, O=Red Hat, OU=Test Neuchatel, CN=jfcpc/emailAddress=jfclere@gmail.com
        Subject Public Key Info:
            Public Key Algorithm: rsaEncryption
                Public-Key: (2048 bit)
                Modulus:
                    00:d3:23:29:80:b8:24:e6:1b:0d:3f:79:33:37:f5:
                    23:dc:cc:b1:d2:db:fb:94:ae:ed:65:26:84:9d:0a:
                    59:9a:fc:fe:82:81:01:11:57:af:64:fe:5f:1b:3f:
                    45:d0:b4:1c:c4:9d:bd:90:9c:54:44:00:01:5f:49:
                    64:e0:5f:33:67:ec:98:b6:8d:8b:1d:75:ff:05:d7:
                    9d:4b:a8:82:bf:18:6c:1f:4a:13:6f:b0:58:0e:0a:
                    d9:5c:45:35:c5:ec:8f:3a:c4:f7:0d:83:76:8d:98:
                    d6:fc:96:94:1d:d4:d4:ac:0c:5a:d1:52:aa:51:f0:
                    17:88:71:9a:43:31:ef:d0:c6:b7:08:5b:9e:53:db:
                    81:ed:17:ee:cd:a2:96:6a:ad:b8:94:00:96:38:6e:
                    2b:63:82:ee:19:c7:8f:b2:39:d7:dd:83:3d:e5:6c:
                    e5:4c:d6:d1:e5:80:2c:27:d5:ef:57:48:46:5d:e0:
                    e7:84:26:03:43:37:0c:c9:df:08:0b:90:81:b2:dc:
                    3c:af:e2:66:29:ba:52:20:ac:fd:0b:fe:f1:ba:47:
                    04:49:2f:bb:17:71:7f:fe:7e:c2:09:41:db:2b:f2:
                    c3:33:9a:e8:9b:13:f9:82:07:32:b7:18:bd:3f:d0:
                    6a:0b:a8:1a:5e:19:2f:25:4e:2f:74:81:7c:2a:c0:
                    15:f7
                Exponent: 65537 (0x10001)
        X509v3 extensions:
            X509v3 Subject Key Identifier: 
                5A:4F:32:BF:AB:83:60:32:AF:31:A7:FC:A7:C5:9B:5E:14:4A:E8:05
            X509v3 Authority Key Identifier: 
                keyid:5A:4F:32:BF:AB:83:60:32:AF:31:A7:FC:A7:C5:9B:5E:14:4A:E8:05

            X509v3 Basic Constraints: critical
                CA:TRUE
    Signature Algorithm: sha256WithRSAEncryption
         48:40:57:d1:00:22:cc:ec:9e:61:c9:ff:cc:ba:4f:e2:d8:d5:
         76:38:40:d3:e8:57:e8:3b:44:78:fa:49:04:10:8f:d6:8f:ab:
         0f:34:5d:58:b3:d8:ba:ad:6d:a4:27:8b:d3:bd:24:11:16:ec:
         bc:ca:88:3a:4f:e9:a6:b9:6d:3c:17:e6:15:64:a8:c4:ea:fe:
         af:97:8c:47:a1:6e:d3:45:d8:86:c2:3c:e8:bf:05:43:36:56:
         ba:78:3e:33:af:4d:ee:6f:a4:57:6b:e7:78:a6:9e:fa:88:0c:
         7c:7b:ad:24:de:fa:4e:43:cc:72:34:53:18:a5:b9:9a:57:c2:
         85:c9:63:bb:79:fd:8d:12:87:44:16:bb:45:e6:c0:c2:e3:72:
         0c:d5:b3:39:24:cb:07:91:a2:17:58:4a:6b:8b:26:d6:d4:cc:
         c5:a7:e5:92:76:84:e4:38:c9:93:1c:a5:1f:14:2a:95:e2:cf:
         21:5e:59:4f:51:7f:77:ee:e7:8b:c1:a1:d7:d4:92:52:f1:13:
         8a:d4:81:ca:e7:f0:98:1b:18:89:31:d4:d7:4c:48:fa:ca:6e:
         6d:30:47:39:62:8c:d3:c0:63:19:ee:69:4d:8d:e6:13:57:c0:
         75:f7:55:83:99:30:58:f9:5d:b4:0b:ab:93:0c:0a:58:9c:01:
         50:37:93:c9
-----BEGIN CERTIFICATE-----
MIID0jCCArqgAwIBAgIJALlId+vOUxuxMA0GCSqGSIb3DQEBCwUAMH4xCzAJBgNV
BAYTAkNIMRIwEAYDVQQIDAlOZXVjaGF0ZWwxEDAOBgNVBAoMB1JlZCBIYXQxFzAV
BgNVBAsMDlRlc3QgTmV1Y2hhdGVsMQ4wDAYDVQQDDAVqZmNwYzEgMB4GCSqGSIb3
DQEJARYRamZjbGVyZUBnbWFpbC5jb20wHhcNMTgwNTA3MTMwNDU1WhcNMjEwNTA2
MTMwNDU1WjB+MQswCQYDVQQGEwJDSDESMBAGA1UECAwJTmV1Y2hhdGVsMRAwDgYD
VQQKDAdSZWQgSGF0MRcwFQYDVQQLDA5UZXN0IE5ldWNoYXRlbDEOMAwGA1UEAwwF
amZjcGMxIDAeBgkqhkiG9w0BCQEWEWpmY2xlcmVAZ21haWwuY29tMIIBIjANBgkq
hkiG9w0BAQEFAAOCAQ8AMIIBCgKCAQEA0yMpgLgk5hsNP3kzN/Uj3Myx0tv7lK7t
ZSaEnQpZmvz+goEBEVevZP5fGz9F0LQcxJ29kJxURAABX0lk4F8zZ+yYto2LHXX/
BdedS6iCvxhsH0oTb7BYDgrZXEU1xeyPOsT3DYN2jZjW/JaUHdTUrAxa0VKqUfAX
iHGaQzHv0Ma3CFueU9uB7RfuzaKWaq24lACWOG4rY4LuGcePsjnX3YM95WzlTNbR
5YAsJ9XvV0hGXeDnhCYDQzcMyd8IC5CBstw8r+JmKbpSIKz9C/7xukcESS+7F3F/
/n7CCUHbK/LDM5romxP5ggcytxi9P9BqC6gaXhkvJU4vdIF8KsAV9wIDAQABo1Mw
UTAdBgNVHQ4EFgQUWk8yv6uDYDKvMaf8p8WbXhRK6AUwHwYDVR0jBBgwFoAUWk8y
v6uDYDKvMaf8p8WbXhRK6AUwDwYDVR0TAQH/BAUwAwEB/zANBgkqhkiG9w0BAQsF
AAOCAQEASEBX0QAizOyeYcn/zLpP4tjVdjhA0+hX6DtEePpJBBCP1o+rDzRdWLPY
uq1tpCeL070kERbsvMqIOk/pprltPBfmFWSoxOr+r5eMR6Fu00XYhsI86L8FQzZW
ung+M69N7m+kV2vneKae+ogMfHutJN76TkPMcjRTGKW5mlfChclju3n9jRKHRBa7
RebAwuNyDNWzOSTLB5GiF1hKa4sm1tTMxaflknaE5DjJkxylHxQqleLPIV5ZT1F/
d+7ni8Gh19SSUvETitSByufwmBsYiTHU10xI+spubTBHOWKM08BjGe5pTY3mE1fA
dfdVg5kwWPldtAurkwwKWJwBUDeTyQ==
-----END CERTIFICATE-----
