Certificate:
    Data:
        Version: 3 (0x2)
        Serial Number:
            b9:48:77:eb:ce:53:1b:c4
    Signature Algorithm: sha256WithRSAEncryption
        Issuer: C=CH, ST=Neuchatel, O=Red Hat, OU=Test Neuchatel, CN=jfcpc/emailAddress=jfclere@gmail.com
        Validity
            Not Before: Oct 16 12:39:12 2018 GMT
            Not After : Oct 16 12:39:12 2019 GMT
        Subject: C=CH, ST=Neuchatel, L=Neuchatel, O=Red Hat, OU=client, CN=localhost/emailAddress=jfclere@gmail.com
        Subject Public Key Info:
            Public Key Algorithm: rsaEncryption
                Public-Key: (2048 bit)
                Modulus:
                    00:a3:71:9f:4b:19:6b:60:b2:d9:e3:bb:79:9b:d0:
                    f9:25:56:0a:ad:0d:6e:ee:eb:99:8d:01:d4:f9:ed:
                    66:ee:ec:90:8c:bf:0d:2f:e9:d9:40:74:51:ab:28:
                    b7:b8:a3:e7:02:4c:c8:c4:c8:e9:2f:10:a2:b8:4d:
                    0f:9c:0b:6f:53:b1:ca:20:90:40:5e:1b:a6:6f:ca:
                    4f:cd:15:e3:d7:f8:98:51:c8:62:bf:88:b4:7e:cd:
                    8b:fe:a1:82:e6:2b:5d:e1:1c:39:4b:ab:91:50:ca:
                    aa:c0:ab:6c:4a:e1:ca:2b:7c:06:a2:8c:23:f4:5a:
                    4a:b1:d9:99:a3:33:57:36:2f:e3:00:5f:72:4e:ca:
                    7f:24:7e:de:56:e6:06:00:d2:66:52:ec:83:84:7d:
                    8f:01:06:a4:7d:a8:83:c5:ca:b4:9d:8d:6c:0f:e3:
                    6c:63:17:d9:be:f7:6c:d1:8e:93:1d:3d:8a:d3:b9:
                    99:b7:23:07:6b:be:7a:45:38:48:4f:af:8c:9e:15:
                    38:6f:b7:f0:74:49:ee:19:29:1e:d4:1f:1d:33:d9:
                    cc:32:9d:5b:be:fd:8d:f7:5b:e9:dd:eb:b1:1c:c0:
                    db:e8:01:f7:b8:ad:3e:46:bd:3e:31:f0:ac:c5:b7:
                    26:2e:a2:50:b9:ce:ef:61:02:2a:60:1c:02:5d:1c:
                    bc:9b
                Exponent: 65537 (0x10001)
        X509v3 extensions:
            X509v3 Basic Constraints: 
                CA:FALSE
            Netscape Comment: 
                OpenSSL Generated Certificate
            X509v3 Subject Key Identifier: 
                35:35:46:46:F3:C9:CF:5D:20:DA:5F:E7:C5:14:B1:E6:3B:58:C4:71
            X509v3 Authority Key Identifier: 
                keyid:5A:4F:32:BF:AB:83:60:32:AF:31:A7:FC:A7:C5:9B:5E:14:4A:E8:05

    Signature Algorithm: sha256WithRSAEncryption
         67:cd:8b:0e:52:67:c7:9c:bf:00:e4:c7:df:3b:81:a3:e5:3a:
         00:fb:bd:14:53:ed:f5:bf:2c:66:78:1b:a9:63:37:3c:84:5d:
         ee:17:66:40:ab:8b:4c:d5:a1:a2:d2:1e:48:2d:45:7a:16:70:
         18:c7:c2:4c:e1:cb:e4:1e:ec:cf:f9:c7:36:b4:a3:9f:6f:c4:
         3e:0b:84:5c:9a:8c:23:6c:5e:19:a5:33:58:92:b8:04:18:f3:
         ff:48:6f:6e:49:37:37:4a:e6:06:63:c0:07:5f:be:bf:b2:3d:
         dc:7b:94:07:3a:63:cf:24:a0:8a:7f:e0:5d:a2:cd:7c:a5:6a:
         87:e3:b4:5a:de:9b:5a:93:6c:d6:66:75:8f:49:e4:38:d2:58:
         0a:f6:ea:11:1c:f6:c9:5b:80:b3:f2:f6:cb:fd:7d:ac:0c:7b:
         f9:df:25:c7:98:d0:15:cc:bd:b4:0d:6c:34:3a:b2:32:d6:d8:
         5c:ab:1c:64:a4:98:1b:b2:2f:a3:a3:b0:21:fd:0b:5f:56:06:
         39:e5:67:20:fe:c1:7e:e1:01:74:f6:51:64:1c:c1:ef:c1:14:
         ca:1f:a6:a2:3b:de:a7:b7:04:98:ff:d8:8c:af:ef:33:5a:1b:
         69:b9:4b:4b:e8:c9:00:11:f4:26:38:3b:a0:e3:64:3b:aa:d9:
         ef:4b:4f:5c
-----BEGIN CERTIFICATE-----
MIIECzCCAvOgAwIBAgIJALlId+vOUxvEMA0GCSqGSIb3DQEBCwUAMH4xCzAJBgNV
BAYTAkNIMRIwEAYDVQQIDAlOZXVjaGF0ZWwxEDAOBgNVBAoMB1JlZCBIYXQxFzAV
BgNVBAsMDlRlc3QgTmV1Y2hhdGVsMQ4wDAYDVQQDDAVqZmNwYzEgMB4GCSqGSIb3
DQEJARYRamZjbGVyZUBnbWFpbC5jb20wHhcNMTgxMDE2MTIzOTEyWhcNMTkxMDE2
MTIzOTEyWjCBjjELMAkGA1UEBhMCQ0gxEjAQBgNVBAgMCU5ldWNoYXRlbDESMBAG
A1UEBwwJTmV1Y2hhdGVsMRAwDgYDVQQKDAdSZWQgSGF0MQ8wDQYDVQQLDAZjbGll
bnQxEjAQBgNVBAMMCWxvY2FsaG9zdDEgMB4GCSqGSIb3DQEJARYRamZjbGVyZUBn
bWFpbC5jb20wggEiMA0GCSqGSIb3DQEBAQUAA4IBDwAwggEKAoIBAQCjcZ9LGWtg
stnju3mb0PklVgqtDW7u65mNAdT57Wbu7JCMvw0v6dlAdFGrKLe4o+cCTMjEyOkv
EKK4TQ+cC29TscogkEBeG6Zvyk/NFePX+JhRyGK/iLR+zYv+oYLmK13hHDlLq5FQ
yqrAq2xK4corfAaijCP0Wkqx2ZmjM1c2L+MAX3JOyn8kft5W5gYA0mZS7IOEfY8B
BqR9qIPFyrSdjWwP42xjF9m+92zRjpMdPYrTuZm3IwdrvnpFOEhPr4yeFThvt/B0
Se4ZKR7UHx0z2cwynVu+/Y33W+nd67EcwNvoAfe4rT5GvT4x8KzFtyYuolC5zu9h
AipgHAJdHLybAgMBAAGjezB5MAkGA1UdEwQCMAAwLAYJYIZIAYb4QgENBB8WHU9w
ZW5TU0wgR2VuZXJhdGVkIENlcnRpZmljYXRlMB0GA1UdDgQWBBQ1NUZG88nPXSDa
X+fFFLHmO1jEcTAfBgNVHSMEGDAWgBRaTzK/q4NgMq8xp/ynxZteFEroBTANBgkq
hkiG9w0BAQsFAAOCAQEAZ82LDlJnx5y/AOTH3zuBo+U6APu9FFPt9b8sZngbqWM3
PIRd7hdmQKuLTNWhotIeSC1FehZwGMfCTOHL5B7sz/nHNrSjn2/EPguEXJqMI2xe
GaUzWJK4BBjz/0hvbkk3N0rmBmPAB1++v7I93HuUBzpjzySgin/gXaLNfKVqh+O0
Wt6bWpNs1mZ1j0nkONJYCvbqERz2yVuAs/L2y/19rAx7+d8lx5jQFcy9tA1sNDqy
MtbYXKscZKSYG7Ivo6OwIf0LX1YGOeVnIP7BfuEBdPZRZBzB78EUyh+mojvep7cE
mP/YjK/vM1obablLS+jJABH0Jjg7oONkO6rZ70tPXA==
-----END CERTIFICATE-----
