Certificate:
    Data:
        Version: 3 (0x2)
        Serial Number:
            b9:48:77:eb:ce:53:1b:d8
        Signature Algorithm: sha256WithRSAEncryption
        Issuer: C=CH, ST=Neuchatel, O=Red Hat, OU=Test Neuchatel, CN=jfcpc/emailAddress=jfclere@gmail.com
        Validity
            Not Before: Nov 19 15:29:39 2019 GMT
            Not After : Nov 18 15:29:39 2020 GMT
        Subject: C=CH, ST=Neuchatel, L=Neuchatel, O=Red Hat, OU=tomcat tests, CN=localhost/emailAddress=jfclere@gmail.com
        Subject Public Key Info:
            Public Key Algorithm: rsaEncryption
                RSA Public-Key: (2048 bit)
                Modulus:
                    00:d1:06:bb:4f:fa:39:f1:29:ff:2d:f1:f5:8f:bb:
                    bd:72:d7:3f:21:b4:04:56:67:72:41:2e:96:67:98:
                    82:5e:b0:8f:6f:ff:0c:30:0a:5a:4d:20:31:48:27:
                    5b:76:11:a1:6f:8b:5b:80:d1:48:6c:af:cf:a7:32:
                    9b:a1:af:62:1c:71:34:4e:f3:bb:58:0c:3c:f9:3a:
                    0a:a9:95:72:72:90:a3:4b:5b:25:1f:26:bc:c3:d3:
                    95:bb:a9:ad:90:9c:d3:bc:8f:79:44:df:64:20:ce:
                    0d:e0:7f:ef:12:18:9c:f1:2c:6a:1c:a3:b5:8c:68:
                    d6:00:e8:16:22:0a:b0:6c:e0:f3:50:fe:53:6d:57:
                    4d:b8:74:d6:5b:6f:88:27:2d:f5:05:75:6a:01:d8:
                    ed:1d:02:db:3a:c9:4c:e0:b1:80:48:57:38:88:e6:
                    49:1f:6e:f0:3d:71:4f:db:b5:1b:2a:7d:7c:73:93:
                    8e:5f:a7:29:70:68:c5:db:c4:70:f5:b2:bc:de:08:
                    2d:bd:2f:e1:cd:3c:9b:a5:d1:e4:e8:1f:3a:54:a8:
                    1a:3f:c6:a5:5d:7a:e6:ee:1e:da:c6:a6:69:5a:f1:
                    74:8f:2b:f1:c7:b1:df:3f:c4:c2:3c:f5:38:79:82:
                    fb:40:1c:3b:48:51:86:92:88:35:dd:fa:da:97:8b:
                    ae:99
                Exponent: 65537 (0x10001)
        X509v3 extensions:
            X509v3 Basic Constraints: 
                CA:FALSE
            Netscape Comment: 
                OpenSSL Generated Certificate
            X509v3 Subject Key Identifier: 
                9A:A6:43:F6:C9:73:E9:19:0E:14:FF:38:C5:6C:C0:52:E2:57:47:5F
            X509v3 Authority Key Identifier: 
                keyid:5A:4F:32:BF:AB:83:60:32:AF:31:A7:FC:A7:C5:9B:5E:14:4A:E8:05

            Authority Information Access: 
                OCSP - URI:http://localhost:2560/

            X509v3 CRL Distribution Points: 

                Full Name:
                  URI:http://localhost:8000/myca.crl

    Signature Algorithm: sha256WithRSAEncryption
         24:4d:a2:23:5e:3b:57:48:b7:c8:c9:9f:36:13:1b:72:0d:cd:
         c3:7d:77:00:4a:9f:8b:17:70:67:a6:a9:9c:f4:9f:f6:68:24:
         e4:17:c6:4b:f4:7f:d5:fd:e4:64:e4:ca:54:90:0a:da:2d:fe:
         2f:5f:ea:a0:29:55:79:1b:f1:1b:cf:94:d3:96:9f:1a:6e:92:
         c2:89:3c:f2:89:6e:27:ff:36:bf:12:69:a2:82:b2:a5:da:ac:
         d4:ae:f0:0f:ed:85:cc:7c:10:54:ed:78:8c:2a:df:fd:a9:b7:
         2b:f2:34:c6:88:2b:e4:22:bd:c2:52:4f:fa:7c:3d:2e:a5:cb:
         aa:7f:b5:0c:81:c8:8c:1f:00:ba:99:58:f7:62:bc:98:bf:de:
         64:04:ab:aa:33:c8:52:c9:ce:05:5b:ca:6d:ec:ab:08:74:2c:
         43:20:56:f8:29:a9:b8:42:f3:86:73:8c:d3:dd:ee:60:ba:a6:
         67:52:80:f1:df:06:79:e7:c7:26:44:2b:b9:ca:5b:41:04:d0:
         5f:0e:2a:dc:02:61:e0:7b:ba:b6:8c:d0:c1:d3:2b:f9:93:96:
         a0:e8:5d:aa:6f:b1:a3:4d:05:60:bd:4f:86:44:7a:b9:96:75:
         0c:38:ec:25:6b:f0:f7:8a:9b:63:d4:86:c5:19:33:15:c6:0b:
         04:5a:55:59
-----BEGIN CERTIFICATE-----
MIIEeDCCA2CgAwIBAgIJALlId+vOUxvYMA0GCSqGSIb3DQEBCwUAMH4xCzAJBgNV
BAYTAkNIMRIwEAYDVQQIDAlOZXVjaGF0ZWwxEDAOBgNVBAoMB1JlZCBIYXQxFzAV
BgNVBAsMDlRlc3QgTmV1Y2hhdGVsMQ4wDAYDVQQDDAVqZmNwYzEgMB4GCSqGSIb3
DQEJARYRamZjbGVyZUBnbWFpbC5jb20wHhcNMTkxMTE5MTUyOTM5WhcNMjAxMTE4
MTUyOTM5WjCBlDELMAkGA1UEBhMCQ0gxEjAQBgNVBAgMCU5ldWNoYXRlbDESMBAG
A1UEBwwJTmV1Y2hhdGVsMRAwDgYDVQQKDAdSZWQgSGF0MRUwEwYDVQQLDAx0b21j
YXQgdGVzdHMxEjAQBgNVBAMMCWxvY2FsaG9zdDEgMB4GCSqGSIb3DQEJARYRamZj
bGVyZUBnbWFpbC5jb20wggEiMA0GCSqGSIb3DQEBAQUAA4IBDwAwggEKAoIBAQDR
BrtP+jnxKf8t8fWPu71y1z8htARWZ3JBLpZnmIJesI9v/wwwClpNIDFIJ1t2EaFv
i1uA0Uhsr8+nMpuhr2IccTRO87tYDDz5OgqplXJykKNLWyUfJrzD05W7qa2QnNO8
j3lE32Qgzg3gf+8SGJzxLGoco7WMaNYA6BYiCrBs4PNQ/lNtV024dNZbb4gnLfUF
dWoB2O0dAts6yUzgsYBIVziI5kkfbvA9cU/btRsqfXxzk45fpylwaMXbxHD1srze
CC29L+HNPJul0eToHzpUqBo/xqVdeubuHtrGpmla8XSPK/HHsd8/xMI89Th5gvtA
HDtIUYaSiDXd+tqXi66ZAgMBAAGjgeEwgd4wCQYDVR0TBAIwADAsBglghkgBhvhC
AQ0EHxYdT3BlblNTTCBHZW5lcmF0ZWQgQ2VydGlmaWNhdGUwHQYDVR0OBBYEFJqm
Q/bJc+kZDhT/OMVswFLiV0dfMB8GA1UdIwQYMBaAFFpPMr+rg2AyrzGn/KfFm14U
SugFMDIGCCsGAQUFBwEBBCYwJDAiBggrBgEFBQcwAYYWaHR0cDovL2xvY2FsaG9z
dDoyNTYwLzAvBgNVHR8EKDAmMCSgIqAghh5odHRwOi8vbG9jYWxob3N0OjgwMDAv
bXljYS5jcmwwDQYJKoZIhvcNAQELBQADggEBACRNoiNeO1dIt8jJnzYTG3INzcN9
dwBKn4sXcGemqZz0n/ZoJOQXxkv0f9X95GTkylSQCtot/i9f6qApVXkb8RvPlNOW
nxpuksKJPPKJbif/Nr8SaaKCsqXarNSu8A/thcx8EFTteIwq3/2ptyvyNMaIK+Qi
vcJST/p8PS6ly6p/tQyByIwfALqZWPdivJi/3mQEq6ozyFLJzgVbym3sqwh0LEMg
VvgpqbhC84ZzjNPd7mC6pmdSgPHfBnnnxyZEK7nKW0EE0F8OKtwCYeB7uraM0MHT
K/mTlqDoXapvsaNNBWC9T4ZEermWdQw47CVr8PeKm2PUhsUZMxXGCwRaVVk=
-----END CERTIFICATE-----
