Certificate:
    Data:
        Version: 3 (0x2)
        Serial Number:
            b9:48:77:eb:ce:53:1c:0f
        Signature Algorithm: sha256WithRSAEncryption
        Issuer: C=CH, ST=Neuchatel, O=Red Hat, OU=CA cert 20210511, CN=localhost/emailAddress=jfclere@gmail.com
        Validity
            Not Before: Jul  6 06:33:30 2023 GMT
            Not After : Jul  5 06:33:30 2024 GMT
        Subject: C=CH, ST=Neuchatel, L=Neuchatel, O=testers, OU=testingTC, CN=localhost/emailAddress=jfclere@gmail.com
        Subject Public Key Info:
            Public Key Algorithm: rsaEncryption
                Public-Key: (2048 bit)
                Modulus:
                    00:aa:66:e9:83:c5:12:db:52:00:6e:a9:55:06:e8:
                    02:89:9b:ff:52:c1:d5:a0:3c:18:6b:5e:bc:38:57:
                    4c:1e:5d:2b:73:ae:58:a9:5b:ca:fb:ba:60:13:35:
                    3b:48:31:84:91:b0:f9:32:0b:9c:ee:55:49:b7:56:
                    3c:31:77:38:d8:ca:71:94:74:ed:a3:2a:82:c9:aa:
                    8e:63:98:d4:72:27:44:10:34:1d:45:bb:e1:95:34:
                    b8:4f:89:c0:4f:d7:30:4f:60:18:e1:25:ec:9f:e4:
                    b6:c2:38:3f:af:cb:9e:b5:6b:a9:07:a5:9f:34:ca:
                    39:7f:e6:e9:7b:e3:4d:b5:75:64:24:89:bd:db:83:
                    04:8c:83:60:f8:fe:32:50:ba:ce:fb:40:0a:bc:5d:
                    7d:6a:ac:8d:bb:cf:dc:5f:4a:95:5e:7a:a5:c2:fe:
                    db:a8:dd:0f:44:aa:3b:b5:8c:8c:61:5e:e7:7c:31:
                    d8:14:3d:3d:00:d7:15:dc:c1:59:11:14:81:ec:54:
                    0e:92:d1:ca:17:e2:61:81:52:ca:31:92:e7:1d:4d:
                    a9:dc:5a:22:67:9b:76:18:3e:61:e1:6b:30:f1:54:
                    42:28:9b:2a:e5:4f:cf:57:f6:78:8d:09:9d:f9:6d:
                    fd:6c:27:53:64:d0:4a:3b:a7:6e:f3:c1:89:69:9f:
                    c7:79
                Exponent: 65537 (0x10001)
        X509v3 extensions:
            X509v3 Basic Constraints: 
                CA:FALSE
            X509v3 Subject Key Identifier: 
                32:8C:40:63:7C:A4:ED:21:39:95:9E:41:78:E9:43:C1:98:00:BD:4B
            X509v3 Authority Key Identifier: 
                DB:42:12:90:08:06:14:C4:B4:5F:69:C0:E0:E2:82:6C:F9:35:A5:38
    Signature Algorithm: sha256WithRSAEncryption
    Signature Value:
        92:de:fa:93:ec:e8:ff:08:89:f6:cc:cc:b2:58:41:6b:84:ba:
        3f:4d:05:8a:31:76:cb:61:62:97:f4:5b:d3:18:83:4c:fd:03:
        5f:a7:f5:89:af:3b:16:66:0d:2f:0e:41:c4:80:cc:52:df:ba:
        aa:b7:9f:ce:2c:59:99:21:07:99:7f:60:2f:08:93:c8:53:c4:
        45:bc:b3:83:66:2e:40:3e:be:41:4b:42:f5:62:8c:c0:83:c6:
        b0:a0:9d:16:20:aa:69:f5:54:d3:3b:07:bf:01:52:39:02:f1:
        bc:b5:1e:40:6d:3a:18:d4:01:3d:ae:2b:fe:bd:6c:b7:5e:7a:
        07:9f:bd:43:20:36:7c:dc:53:78:2b:29:0e:fc:fd:9c:e7:2f:
        f5:e3:8b:66:73:5e:ea:75:2f:72:37:66:ff:a1:91:14:32:34:
        7a:7e:b8:bf:7b:2f:42:ac:5a:71:46:2d:b3:76:8c:77:d1:f3:
        33:a4:ea:7d:ad:31:ce:54:fb:43:39:d2:c0:df:76:c8:38:fd:
        b1:93:48:74:42:68:d1:df:9e:7f:08:cd:c7:de:4d:bb:a0:a2:
        9d:39:88:d1:3d:c7:21:95:12:20:49:3e:ca:43:26:ba:e8:0c:
        aa:5d:47:e6:1c:96:10:c9:f1:29:f0:da:db:a4:71:fd:21:56:
        a6:63:f5:a7
-----BEGIN CERTIFICATE-----
MIID5zCCAs+gAwIBAgIJALlId+vOUxwPMA0GCSqGSIb3DQEBCwUAMIGEMQswCQYD
VQQGEwJDSDESMBAGA1UECAwJTmV1Y2hhdGVsMRAwDgYDVQQKDAdSZWQgSGF0MRkw
FwYDVQQLDBBDQSBjZXJ0IDIwMjEwNTExMRIwEAYDVQQDDAlsb2NhbGhvc3QxIDAe
BgkqhkiG9w0BCQEWEWpmY2xlcmVAZ21haWwuY29tMB4XDTIzMDcwNjA2MzMzMFoX
DTI0MDcwNTA2MzMzMFowgZExCzAJBgNVBAYTAkNIMRIwEAYDVQQIDAlOZXVjaGF0
ZWwxEjAQBgNVBAcMCU5ldWNoYXRlbDEQMA4GA1UECgwHdGVzdGVyczESMBAGA1UE
CwwJdGVzdGluZ1RDMRIwEAYDVQQDDAlsb2NhbGhvc3QxIDAeBgkqhkiG9w0BCQEW
EWpmY2xlcmVAZ21haWwuY29tMIIBIjANBgkqhkiG9w0BAQEFAAOCAQ8AMIIBCgKC
AQEAqmbpg8US21IAbqlVBugCiZv/UsHVoDwYa168OFdMHl0rc65YqVvK+7pgEzU7
SDGEkbD5Mguc7lVJt1Y8MXc42MpxlHTtoyqCyaqOY5jUcidEEDQdRbvhlTS4T4nA
T9cwT2AY4SXsn+S2wjg/r8uetWupB6WfNMo5f+bpe+NNtXVkJIm924MEjINg+P4y
ULrO+0AKvF19aqyNu8/cX0qVXnqlwv7bqN0PRKo7tYyMYV7nfDHYFD09ANcV3MFZ
ERSB7FQOktHKF+JhgVLKMZLnHU2p3FoiZ5t2GD5h4Wsw8VRCKJsq5U/PV/Z4jQmd
+W39bCdTZNBKO6du88GJaZ/HeQIDAQABo00wSzAJBgNVHRMEAjAAMB0GA1UdDgQW
BBQyjEBjfKTtITmVnkF46UPBmAC9SzAfBgNVHSMEGDAWgBTbQhKQCAYUxLRfacDg
4oJs+TWlODANBgkqhkiG9w0BAQsFAAOCAQEAkt76k+zo/wiJ9szMslhBa4S6P00F
ijF2y2Fil/Rb0xiDTP0DX6f1ia87FmYNLw5BxIDMUt+6qrefzixZmSEHmX9gLwiT
yFPERbyzg2YuQD6+QUtC9WKMwIPGsKCdFiCqafVU0zsHvwFSOQLxvLUeQG06GNQB
Pa4r/r1st156B5+9QyA2fNxTeCspDvz9nOcv9eOLZnNe6nUvcjdm/6GRFDI0en64
v3svQqxacUYts3aMd9HzM6Tqfa0xzlT7QznSwN92yDj9sZNIdEJo0d+efwjNx95N
u6CinTmI0T3HIZUSIEk+ykMmuugMql1H5hyWEMnxKfDa26Rx/SFWpmP1pw==
-----END CERTIFICATE-----
