Certificate:
    Data:
        Version: 3 (0x2)
        Serial Number:
            b9:48:77:eb:ce:53:1b:f9
        Signature Algorithm: sha256WithRSAEncryption
        Issuer: C=CH, ST=Neuchatel, O=Red Hat, OU=CA cert 20210511, CN=localhost/emailAddress=jfclere@gmail.com
        Validity
            Not Before: May 11 08:20:29 2021 GMT
            Not After : May 11 08:20:29 2022 GMT
        Subject: C=CH, ST=Neuchatel, L=Neuchatel, O=Red Hat, OU=20200511 cert, CN=localhost/emailAddress=jfclere@gmail.com
        Subject Public Key Info:
            Public Key Algorithm: rsaEncryption
                RSA Public-Key: (2048 bit)
                Modulus:
                    00:cd:4a:c1:31:d8:7a:66:92:d4:33:08:83:bd:ec:
                    f4:fc:bc:7f:af:13:d6:74:94:e4:23:34:c7:ea:f7:
                    72:5d:3f:0e:73:eb:40:a4:54:b7:45:3d:f0:38:53:
                    78:0e:dd:6a:7c:f2:87:94:4c:f4:d1:a9:91:67:8a:
                    eb:1e:f6:6c:e1:f9:a2:cf:c9:21:d8:08:c6:e4:34:
                    e5:57:19:a6:b2:11:94:7f:40:79:58:09:6a:40:7e:
                    98:d9:78:36:b2:fe:5d:5b:9c:f8:ee:51:60:a8:f7:
                    2b:ea:c3:87:b9:af:9d:ea:68:6e:c1:cc:c5:26:da:
                    5d:c1:ee:29:f3:a8:f9:e1:de:69:69:3c:5a:ea:f8:
                    9b:e0:6b:70:83:8d:c6:61:ac:75:ef:8d:85:37:d0:
                    2a:e6:a0:b8:0d:a1:22:2c:da:9d:16:6e:15:dd:e5:
                    74:2c:5a:98:4a:4c:21:af:b0:fb:da:24:6f:62:56:
                    c0:40:fb:82:b3:37:65:47:e7:b1:a3:07:d1:4b:93:
                    a7:1b:e7:bd:8b:4c:63:61:4a:6a:b5:bc:58:a8:9c:
                    11:86:83:bb:1c:4c:6c:12:4c:46:9a:ff:d8:31:6b:
                    24:d7:c0:30:31:0e:52:41:c9:e4:c0:77:b9:69:40:
                    d6:12:13:b1:0d:14:47:27:26:0a:b2:fd:46:43:65:
                    e2:25
                Exponent: 65537 (0x10001)
        X509v3 extensions:
            X509v3 Basic Constraints: 
                CA:FALSE
            Netscape Comment: 
                OpenSSL Generated Certificate
            X509v3 Subject Key Identifier: 
                5E:E4:EA:49:BC:50:71:FB:00:66:45:4F:81:98:C7:7F:88:34:CF:D0
            X509v3 Authority Key Identifier: 
                keyid:DB:42:12:90:08:06:14:C4:B4:5F:69:C0:E0:E2:82:6C:F9:35:A5:38

            Authority Information Access: 
                OCSP - URI:http://localhost:2560/

            X509v3 CRL Distribution Points: 

                Full Name:
                  URI:http://localhost:8000/myca.crl

    Signature Algorithm: sha256WithRSAEncryption
         75:d2:ba:f5:6c:ed:f2:e0:b4:bf:3b:ca:5d:45:78:2a:be:5b:
         29:8a:2d:4b:0c:52:22:16:89:2f:6f:12:8e:dc:ce:da:b3:4b:
         79:09:99:7e:67:e1:2b:90:33:b1:4f:a0:92:57:9a:fc:f9:e1:
         22:31:3b:5e:10:fb:cb:6f:dc:72:2f:25:54:7e:fd:c7:7e:bd:
         82:41:f7:c2:ab:de:92:a3:c0:72:bd:f1:c4:ed:4d:5a:d8:4d:
         71:92:92:35:ca:f8:e0:45:3f:2a:e5:e1:5f:31:e0:7c:3a:a0:
         24:ee:8a:ba:f0:1b:b5:a0:b4:b7:79:3d:f2:5b:c7:a8:44:7c:
         19:d4:4a:a7:f4:10:e8:6f:04:3f:3f:f0:9f:ab:d9:b1:40:d5:
         1c:ec:ab:47:63:38:8b:27:23:13:02:e5:ab:86:f7:27:df:d3:
         82:62:3e:47:e3:95:36:cf:b5:55:79:31:09:87:54:a1:e2:a4:
         4e:cf:5f:93:fa:6c:19:19:45:4f:43:ac:73:1c:81:50:a2:28:
         d5:2b:91:03:ea:f9:a1:da:81:f2:e9:9d:4f:5a:1b:cb:d2:d4:
         de:16:ea:f9:c9:a5:6f:8c:7d:1b:55:ac:e5:31:cc:d6:56:44:
         f4:bc:01:24:17:1f:fd:5b:83:e3:67:6b:1c:28:99:72:5c:38:
         a2:9b:2a:59
-----BEGIN CERTIFICATE-----
MIIEgDCCA2igAwIBAgIJALlId+vOUxv5MA0GCSqGSIb3DQEBCwUAMIGEMQswCQYD
VQQGEwJDSDESMBAGA1UECAwJTmV1Y2hhdGVsMRAwDgYDVQQKDAdSZWQgSGF0MRkw
FwYDVQQLDBBDQSBjZXJ0IDIwMjEwNTExMRIwEAYDVQQDDAlsb2NhbGhvc3QxIDAe
BgkqhkiG9w0BCQEWEWpmY2xlcmVAZ21haWwuY29tMB4XDTIxMDUxMTA4MjAyOVoX
DTIyMDUxMTA4MjAyOVowgZUxCzAJBgNVBAYTAkNIMRIwEAYDVQQIDAlOZXVjaGF0
ZWwxEjAQBgNVBAcMCU5ldWNoYXRlbDEQMA4GA1UECgwHUmVkIEhhdDEWMBQGA1UE
CwwNMjAyMDA1MTEgY2VydDESMBAGA1UEAwwJbG9jYWxob3N0MSAwHgYJKoZIhvcN
AQkBFhFqZmNsZXJlQGdtYWlsLmNvbTCCASIwDQYJKoZIhvcNAQEBBQADggEPADCC
AQoCggEBAM1KwTHYemaS1DMIg73s9Py8f68T1nSU5CM0x+r3cl0/DnPrQKRUt0U9
8DhTeA7danzyh5RM9NGpkWeK6x72bOH5os/JIdgIxuQ05VcZprIRlH9AeVgJakB+
mNl4NrL+XVuc+O5RYKj3K+rDh7mvnepobsHMxSbaXcHuKfOo+eHeaWk8Wur4m+Br
cIONxmGsde+NhTfQKuaguA2hIizanRZuFd3ldCxamEpMIa+w+9okb2JWwED7grM3
ZUfnsaMH0UuTpxvnvYtMY2FKarW8WKicEYaDuxxMbBJMRpr/2DFrJNfAMDEOUkHJ
5MB3uWlA1hITsQ0URycmCrL9RkNl4iUCAwEAAaOB4TCB3jAJBgNVHRMEAjAAMCwG
CWCGSAGG+EIBDQQfFh1PcGVuU1NMIEdlbmVyYXRlZCBDZXJ0aWZpY2F0ZTAdBgNV
HQ4EFgQUXuTqSbxQcfsAZkVPgZjHf4g0z9AwHwYDVR0jBBgwFoAU20ISkAgGFMS0
X2nA4OKCbPk1pTgwMgYIKwYBBQUHAQEEJjAkMCIGCCsGAQUFBzABhhZodHRwOi8v
bG9jYWxob3N0OjI1NjAvMC8GA1UdHwQoMCYwJKAioCCGHmh0dHA6Ly9sb2NhbGhv
c3Q6ODAwMC9teWNhLmNybDANBgkqhkiG9w0BAQsFAAOCAQEAddK69Wzt8uC0vzvK
XUV4Kr5bKYotSwxSIhaJL28SjtzO2rNLeQmZfmfhK5AzsU+gklea/PnhIjE7XhD7
y2/cci8lVH79x369gkH3wqvekqPAcr3xxO1NWthNcZKSNcr44EU/KuXhXzHgfDqg
JO6KuvAbtaC0t3k98lvHqER8GdRKp/QQ6G8EPz/wn6vZsUDVHOyrR2M4iycjEwLl
q4b3J9/TgmI+R+OVNs+1VXkxCYdUoeKkTs9fk/psGRlFT0OscxyBUKIo1SuRA+r5
odqB8umdT1oby9LU3hbq+cmlb4x9G1Ws5THM1lZE9LwBJBcf/VuD42drHCiZclw4
opsqWQ==
-----END CERTIFICATE-----
