Certificate:
    Data:
        Version: 3 (0x2)
        Serial Number:
            b9:48:77:eb:ce:53:1b:f2
        Signature Algorithm: sha256WithRSAEncryption
        Issuer: C=CH, ST=Neuchatel, O=Red Hat, OU=Test Neuchatel, CN=jfcpc/emailAddress=jfclere@gmail.com
        Validity
            Not Before: Jan 30 08:45:19 2021 GMT
            Not After : Jan 30 08:45:19 2022 GMT
        Subject: C=CH, ST=Neuchatel, L=Neuchatel, O=Red Hat, OU=Test2021, CN=localhost/emailAddress=jfclere@gmail.com
        Subject Public Key Info:
            Public Key Algorithm: rsaEncryption
                RSA Public-Key: (2048 bit)
                Modulus:
                    00:bd:03:6b:c4:9f:bd:c6:84:41:46:d9:0b:19:34:
                    69:5e:fd:e3:d5:34:64:cf:9d:27:3d:ee:cd:80:5d:
                    09:d9:04:2f:8f:6b:c1:a4:33:f8:c0:be:83:8d:87:
                    97:5a:f9:d8:92:9b:09:d7:12:f2:17:ff:59:cc:a5:
                    ea:da:1a:3e:45:66:41:f5:1a:c5:51:26:2d:e7:85:
                    f0:0c:73:9d:17:79:00:98:2c:46:5b:9a:68:02:ff:
                    f2:f1:13:1e:1f:ce:78:b4:ab:63:af:d5:b8:f3:86:
                    c4:6e:11:ae:22:43:d5:38:98:ae:cc:24:4b:e4:f0:
                    df:44:7b:be:1c:79:a4:09:e2:24:8e:87:21:30:f1:
                    6d:46:9e:ac:3d:1e:0b:9b:fc:73:aa:81:4b:e7:f4:
                    0c:5f:ef:6b:c3:ad:66:8e:ac:09:05:80:f8:df:60:
                    eb:e8:55:da:34:f1:e9:30:40:d9:35:82:13:06:26:
                    42:8e:68:70:34:78:95:93:ad:78:f4:dc:a7:26:63:
                    91:c5:ff:b4:63:8c:23:5b:2a:ec:56:f1:4a:91:fc:
                    d4:69:a6:ad:f4:8d:3c:17:98:0c:4e:38:c7:a5:dc:
                    66:54:66:b3:23:8e:63:74:e5:de:8d:88:02:35:42:
                    38:76:da:76:95:27:27:2f:da:0c:0a:e8:2c:68:ff:
                    46:f1
                Exponent: 65537 (0x10001)
        X509v3 extensions:
            X509v3 Basic Constraints: 
                CA:FALSE
            Netscape Comment: 
                OpenSSL Generated Certificate
            X509v3 Subject Key Identifier: 
                E6:49:E6:05:29:7A:9C:24:AD:5E:4D:F7:CA:38:3A:4A:5E:34:D1:70
            X509v3 Authority Key Identifier: 
                keyid:5A:4F:32:BF:AB:83:60:32:AF:31:A7:FC:A7:C5:9B:5E:14:4A:E8:05

            Authority Information Access: 
                OCSP - URI:http://localhost:2560/

            X509v3 CRL Distribution Points: 

                Full Name:
                  URI:http://localhost:8000/myca.crl

    Signature Algorithm: sha256WithRSAEncryption
         bf:63:2a:7c:50:a3:3d:ee:69:48:8e:a1:4d:12:55:2e:c5:e2:
         33:85:ac:94:5f:37:18:2a:dc:7a:57:c2:72:8c:fc:28:2d:9f:
         02:b8:f0:f1:6b:52:ce:3b:bf:ca:4b:bf:7d:83:5a:a2:ea:f8:
         bd:32:73:2b:56:78:3e:d0:af:82:57:1e:d2:39:80:b3:23:04:
         ab:8f:9c:94:41:9a:8d:d0:34:ee:db:a9:d5:8c:8a:8c:63:34:
         7e:93:20:dd:9d:91:83:3f:c2:b2:ab:72:b7:83:1d:a9:64:49:
         0c:c9:f2:07:2c:8b:79:5e:b9:05:b1:a1:55:40:a9:d0:5b:84:
         b4:0d:08:a1:29:91:08:ad:7d:22:99:33:06:0e:e1:12:11:21:
         c0:ab:60:e0:55:e6:0f:ad:81:ba:ed:a8:d1:3f:2a:a5:08:d8:
         69:6c:36:71:a0:ee:70:6b:04:a3:bb:8b:d6:16:c6:33:1d:d0:
         e5:a1:3f:68:69:98:99:4c:89:2c:17:f4:53:70:37:5b:ee:62:
         c9:45:b0:0b:59:63:f0:a3:f8:a4:a9:30:58:50:ea:ce:d0:18:
         3a:b8:06:ea:54:73:d2:4c:fc:b0:31:4b:3f:87:a3:15:22:19:
         09:d1:f7:c4:5e:69:23:fd:ae:de:a6:30:af:81:9d:a4:cc:31:
         ab:a1:d1:08
-----BEGIN CERTIFICATE-----
MIIEdDCCA1ygAwIBAgIJALlId+vOUxvyMA0GCSqGSIb3DQEBCwUAMH4xCzAJBgNV
BAYTAkNIMRIwEAYDVQQIDAlOZXVjaGF0ZWwxEDAOBgNVBAoMB1JlZCBIYXQxFzAV
BgNVBAsMDlRlc3QgTmV1Y2hhdGVsMQ4wDAYDVQQDDAVqZmNwYzEgMB4GCSqGSIb3
DQEJARYRamZjbGVyZUBnbWFpbC5jb20wHhcNMjEwMTMwMDg0NTE5WhcNMjIwMTMw
MDg0NTE5WjCBkDELMAkGA1UEBhMCQ0gxEjAQBgNVBAgMCU5ldWNoYXRlbDESMBAG
A1UEBwwJTmV1Y2hhdGVsMRAwDgYDVQQKDAdSZWQgSGF0MREwDwYDVQQLDAhUZXN0
MjAyMTESMBAGA1UEAwwJbG9jYWxob3N0MSAwHgYJKoZIhvcNAQkBFhFqZmNsZXJl
QGdtYWlsLmNvbTCCASIwDQYJKoZIhvcNAQEBBQADggEPADCCAQoCggEBAL0Da8Sf
vcaEQUbZCxk0aV7949U0ZM+dJz3uzYBdCdkEL49rwaQz+MC+g42Hl1r52JKbCdcS
8hf/Wcyl6toaPkVmQfUaxVEmLeeF8AxznRd5AJgsRluaaAL/8vETHh/OeLSrY6/V
uPOGxG4RriJD1TiYrswkS+Tw30R7vhx5pAniJI6HITDxbUaerD0eC5v8c6qBS+f0
DF/va8OtZo6sCQWA+N9g6+hV2jTx6TBA2TWCEwYmQo5ocDR4lZOtePTcpyZjkcX/
tGOMI1sq7FbxSpH81GmmrfSNPBeYDE44x6XcZlRmsyOOY3Tl3o2IAjVCOHbadpUn
Jy/aDAroLGj/RvECAwEAAaOB4TCB3jAJBgNVHRMEAjAAMCwGCWCGSAGG+EIBDQQf
Fh1PcGVuU1NMIEdlbmVyYXRlZCBDZXJ0aWZpY2F0ZTAdBgNVHQ4EFgQU5knmBSl6
nCStXk33yjg6Sl400XAwHwYDVR0jBBgwFoAUWk8yv6uDYDKvMaf8p8WbXhRK6AUw
MgYIKwYBBQUHAQEEJjAkMCIGCCsGAQUFBzABhhZodHRwOi8vbG9jYWxob3N0OjI1
NjAvMC8GA1UdHwQoMCYwJKAioCCGHmh0dHA6Ly9sb2NhbGhvc3Q6ODAwMC9teWNh
LmNybDANBgkqhkiG9w0BAQsFAAOCAQEAv2MqfFCjPe5pSI6hTRJVLsXiM4WslF83
GCrcelfCcoz8KC2fArjw8WtSzju/yku/fYNaour4vTJzK1Z4PtCvglce0jmAsyME
q4+clEGajdA07tup1YyKjGM0fpMg3Z2Rgz/Csqtyt4MdqWRJDMnyByyLeV65BbGh
VUCp0FuEtA0IoSmRCK19IpkzBg7hEhEhwKtg4FXmD62Buu2o0T8qpQjYaWw2caDu
cGsEo7uL1hbGMx3Q5aE/aGmYmUyJLBf0U3A3W+5iyUWwC1lj8KP4pKkwWFDqztAY
OrgG6lRz0kz8sDFLP4ejFSIZCdH3xF5pI/2u3qYwr4GdpMwxq6HRCA==
-----END CERTIFICATE-----
