Certificate:
    Data:
        Version: 3 (0x2)
        Serial Number:
            b9:48:77:eb:ce:53:1c:0a
        Signature Algorithm: sha256WithRSAEncryption
        Issuer: C=CH, ST=Neuchatel, O=Red Hat, OU=CA cert 20210511, CN=localhost/emailAddress=jfclere@gmail.com
        Validity
            Not Before: Jun  7 13:49:05 2022 GMT
            Not After : Jun  7 13:49:05 2023 GMT
        Subject: C=CH, ST=Neuchatel, L=Neuchatel, O=Red Hat, OU=tomcat-tests-June2022, CN=localhost/emailAddress=jfclere@gmail.com
        Subject Public Key Info:
            Public Key Algorithm: rsaEncryption
                RSA Public-Key: (2048 bit)
                Modulus:
                    00:cb:7a:00:8d:c1:42:d0:76:cf:0a:bd:c2:8d:d2:
                    10:e1:a8:ce:cd:12:93:e9:70:a2:1e:31:54:7f:89:
                    8c:2d:13:b8:37:7d:3b:12:c2:0a:3d:d7:1f:39:1f:
                    1f:43:8a:c7:c0:7a:00:af:d5:bf:61:d2:70:e3:08:
                    ae:5d:ef:b0:6a:5e:a2:d1:d2:fa:e6:8d:d2:f2:9c:
                    98:fa:63:7f:70:88:70:20:4f:2a:9d:b3:da:6e:1d:
                    3f:a9:c0:ec:d9:de:e1:83:29:58:25:74:03:b7:24:
                    f8:dc:31:bf:1a:de:cc:5d:96:6c:fd:9c:b2:be:77:
                    b3:d1:62:b4:10:b4:42:45:99:a6:c8:c6:6e:3a:d4:
                    98:2d:e6:3d:0a:ff:3f:4f:44:ef:71:f6:f1:9e:5c:
                    87:f0:b8:98:9c:fb:bd:b2:b2:a0:5e:90:d8:8b:f2:
                    e0:53:40:0f:ea:f7:fe:b3:59:e7:ef:5a:12:39:67:
                    9c:11:9f:10:28:fb:94:a7:1b:3c:a5:94:87:f3:34:
                    4e:de:a9:d1:14:e8:fa:cb:d2:95:11:65:c3:1d:7c:
                    22:a1:1e:ef:8b:dd:d8:45:82:2c:5c:e7:39:de:e5:
                    42:f3:c6:89:5b:a9:ea:82:0a:ea:c8:8d:0f:9d:ec:
                    c7:54:03:c4:e3:3b:fe:f1:14:b9:c6:77:b4:80:90:
                    4a:5f
                Exponent: 65537 (0x10001)
        X509v3 extensions:
            X509v3 Basic Constraints: 
                CA:FALSE
            Netscape Comment: 
                OpenSSL Generated Certificate
            X509v3 Subject Key Identifier: 
                98:B9:A7:17:E0:0F:AD:03:48:D8:01:2E:0F:A2:B6:3F:55:CA:45:E2
            X509v3 Authority Key Identifier: 
                keyid:DB:42:12:90:08:06:14:C4:B4:5F:69:C0:E0:E2:82:6C:F9:35:A5:38

            X509v3 Subject Alternative Name: 
                DNS:jfcpc, DNS:localhost, DNS:127.0.0.1, DNS:::1, DNS:localhost.localdomain
    Signature Algorithm: sha256WithRSAEncryption
         00:4e:3d:bb:5b:e2:64:c1:7b:47:f5:b5:99:19:33:e4:5a:15:
         4e:60:ec:f9:33:e6:3f:78:8a:ad:10:12:33:f3:e1:52:03:95:
         54:55:a1:b0:23:e1:0b:d8:0c:fd:69:3f:49:89:cc:f6:7d:f5:
         d7:03:de:4f:54:02:be:17:0e:13:be:bb:fb:a2:98:fe:53:4d:
         27:7c:7b:9b:4d:f5:50:86:74:97:2d:a9:f8:5b:a2:90:1a:0e:
         2c:1a:cd:fe:ea:91:60:a9:64:2b:b0:50:6e:57:9a:5f:e8:16:
         b2:a7:79:eb:a1:70:46:cd:67:bd:f6:2a:93:e0:9e:8a:a5:c7:
         44:8e:c8:70:e9:da:b0:f9:5f:8d:8f:28:d0:f3:3d:cb:ba:6c:
         21:08:4d:0e:be:db:9d:55:8f:82:8b:38:4a:ba:a0:09:5a:df:
         37:db:19:7d:d7:19:cc:a8:46:e3:28:7c:c2:9a:f3:70:ed:cf:
         11:a9:38:17:32:5d:a2:11:38:7a:98:92:ad:a2:84:7b:e8:e4:
         59:91:1c:95:36:d4:59:f2:27:c8:a3:3b:c9:6b:1b:31:f0:4b:
         7a:dd:ca:0e:2f:04:a1:1a:7e:40:9c:b1:4c:9b:1b:ca:9c:36:
         81:eb:bc:f5:82:ec:1d:0d:8b:f2:da:e5:1a:8f:66:4b:1a:e8:
         ae:c2:ef:37
-----BEGIN CERTIFICATE-----
MIIEZzCCA0+gAwIBAgIJALlId+vOUxwKMA0GCSqGSIb3DQEBCwUAMIGEMQswCQYD
VQQGEwJDSDESMBAGA1UECAwJTmV1Y2hhdGVsMRAwDgYDVQQKDAdSZWQgSGF0MRkw
FwYDVQQLDBBDQSBjZXJ0IDIwMjEwNTExMRIwEAYDVQQDDAlsb2NhbGhvc3QxIDAe
BgkqhkiG9w0BCQEWEWpmY2xlcmVAZ21haWwuY29tMB4XDTIyMDYwNzEzNDkwNVoX
DTIzMDYwNzEzNDkwNVowgZ0xCzAJBgNVBAYTAkNIMRIwEAYDVQQIDAlOZXVjaGF0
ZWwxEjAQBgNVBAcMCU5ldWNoYXRlbDEQMA4GA1UECgwHUmVkIEhhdDEeMBwGA1UE
CwwVdG9tY2F0LXRlc3RzLUp1bmUyMDIyMRIwEAYDVQQDDAlsb2NhbGhvc3QxIDAe
BgkqhkiG9w0BCQEWEWpmY2xlcmVAZ21haWwuY29tMIIBIjANBgkqhkiG9w0BAQEF
AAOCAQ8AMIIBCgKCAQEAy3oAjcFC0HbPCr3CjdIQ4ajOzRKT6XCiHjFUf4mMLRO4
N307EsIKPdcfOR8fQ4rHwHoAr9W/YdJw4wiuXe+wal6i0dL65o3S8pyY+mN/cIhw
IE8qnbPabh0/qcDs2d7hgylYJXQDtyT43DG/Gt7MXZZs/Zyyvnez0WK0ELRCRZmm
yMZuOtSYLeY9Cv8/T0TvcfbxnlyH8LiYnPu9srKgXpDYi/LgU0AP6vf+s1nn71oS
OWecEZ8QKPuUpxs8pZSH8zRO3qnRFOj6y9KVEWXDHXwioR7vi93YRYIsXOc53uVC
88aJW6nqggrqyI0PnezHVAPE4zv+8RS5xne0gJBKXwIDAQABo4HAMIG9MAkGA1Ud
EwQCMAAwLAYJYIZIAYb4QgENBB8WHU9wZW5TU0wgR2VuZXJhdGVkIENlcnRpZmlj
YXRlMB0GA1UdDgQWBBSYuacX4A+tA0jYAS4PorY/VcpF4jAfBgNVHSMEGDAWgBTb
QhKQCAYUxLRfacDg4oJs+TWlODBCBgNVHREEOzA5ggVqZmNwY4IJbG9jYWxob3N0
ggkxMjcuMC4wLjGCAzo6MYIVbG9jYWxob3N0LmxvY2FsZG9tYWluMA0GCSqGSIb3
DQEBCwUAA4IBAQAATj27W+JkwXtH9bWZGTPkWhVOYOz5M+Y/eIqtEBIz8+FSA5VU
VaGwI+EL2Az9aT9Jicz2ffXXA95PVAK+Fw4Tvrv7opj+U00nfHubTfVQhnSXLan4
W6KQGg4sGs3+6pFgqWQrsFBuV5pf6Bayp3nroXBGzWe99iqT4J6KpcdEjshw6dqw
+V+NjyjQ8z3LumwhCE0OvtudVY+CizhKuqAJWt832xl91xnMqEbjKHzCmvNw7c8R
qTgXMl2iETh6mJKtooR76ORZkRyVNtRZ8ifIozvJaxsx8Et63coOLwShGn5AnLFM
mxvKnDaB67z1guwdDYvy2uUaj2ZLGuiuwu83
-----END CERTIFICATE-----
